; Function Attrs: nounwind allocsize(0,1) uwtable
define noalias ptr @_ecalloc(i64 noundef %0, i64 noundef %1) local_unnamed_addr #10 {
  %3 = tail call { i64, i64 } asm "mulq $3\0A\09adc $$0,$1", "=&{ax},=&{dx},%0,rm,~{dirflag},~{fpsr},~{flags}"(i64 %0, i64 %1) #41, !srcloc !6
  %4 = extractvalue { i64, i64 } %3, 1
  %.not.not = icmp eq i64 %4, 0
  br i1 %.not.not, label %6, label %5

5:                                                ; preds = %2
  tail call void (i32, ptr, ...) @zend_error_noreturn(i32 noundef 1, ptr noundef nonnull @.str.11, i64 noundef %0, i64 noundef %1, i64 noundef 0) #38
  unreachable

6:                                                ; preds = %2
  %7 = extractvalue { i64, i64 } %3, 0
  %8 = tail call noalias ptr @_emalloc(i64 noundef %7) #42
  tail call void @llvm.memset.p0.i64(ptr align 1 %8, i8 0, i64 %7, i1 false)
  ret ptr %8
}